target datalayout = "e-m:e-p270:32:32-p271:32:32-p272:64:64-i64:64-i128:128-f80:128-n8:16:32:64-S128"
target triple = "x86_64-pc-linux-gnu"

%struct.AVFormatContext = type { ptr, ptr, ptr, ptr, ptr, i32, i32, ptr, i32, ptr, i32, ptr, ptr, i64, i64, i64, i32, i32, i32, i64, i64, ptr, i32, i32, ptr, i32, i32, i32, i32, ptr, i64, i32, i32, %struct.AVIOInterruptCB, i32, i32, i32, i32, i64, i32, i32, i32, i32, i32, i32, i32, i32, i32, i32, i32, i32, i64, i32, i32, i32, i32, i32, ptr, ptr, ptr, ptr, i32, ptr, ptr, ptr, ptr, i32, ptr, ptr, i64, ptr, ptr, ptr, i64 }
%struct.AVIOInterruptCB = type { ptr, ptr }

@.str = private unnamed_addr constant [30 x i8] c"Assertion %s failed at %s:%d\0A\00", align 1
@.str.1 = private unnamed_addr constant [16 x i8] c"s->nb_streams>0\00", align 1
@.str.2 = private unnamed_addr constant [23 x i8] c"libavformat/avformat.c\00", align 1
@.str.3 = private unnamed_addr constant [38 x i8] c"s->streams[ s->nb_streams - 1 ] == st\00", align 1

; Function Attrs: nounwind uwtable
define void @ff_remove_stream(ptr noundef %0, ptr noundef %1) #0 {
  %3 = alloca ptr, align 8
  %4 = alloca ptr, align 8
  store ptr %0, ptr %3, align 8, !tbaa !47
  store ptr %1, ptr %4, align 8, !tbaa !10
  br label %5

5:                                                ; preds = %2
  %6 = load ptr, ptr %3, align 8, !tbaa !47
  %7 = getelementptr inbounds nuw %struct.AVFormatContext, ptr %6, i32 0, i32 6
  %8 = load i32, ptr %7, align 4, !tbaa !48
  %9 = icmp ugt i32 %8, 0
  br i1 %9, label %11, label %10

10:                                               ; preds = %5
  call void (ptr, i32, ptr, ...) @av_log(ptr noundef null, i32 noundef 0, ptr noundef @.str, ptr noundef @.str.1, ptr noundef @.str.2, i32 noundef 115)
  call void @abort() #12
  unreachable

11:                                               ; preds = %5
  br label %12

12:                                               ; preds = %11
  br label %13

13:                                               ; preds = %12
  %14 = load ptr, ptr %3, align 8, !tbaa !47
  %15 = getelementptr inbounds nuw %struct.AVFormatContext, ptr %14, i32 0, i32 7
  %16 = load ptr, ptr %15, align 8, !tbaa !57
  %17 = load ptr, ptr %3, align 8, !tbaa !47
  %18 = getelementptr inbounds nuw %struct.AVFormatContext, ptr %17, i32 0, i32 6
  %19 = load i32, ptr %18, align 4, !tbaa !48
  %20 = sub i32 %19, 1
  %21 = zext i32 %20 to i64
  %22 = getelementptr inbounds nuw ptr, ptr %16, i64 %21
  %23 = load ptr, ptr %22, align 8, !tbaa !10
  %24 = load ptr, ptr %4, align 8, !tbaa !10
  %25 = icmp eq ptr %23, %24
  br i1 %25, label %27, label %26

26:                                               ; preds = %13
  call void (ptr, i32, ptr, ...) @av_log(ptr noundef null, i32 noundef 0, ptr noundef @.str, ptr noundef @.str.3, ptr noundef @.str.2, i32 noundef 116)
  call void @abort() #12
  unreachable

27:                                               ; preds = %13
  br label %28

28:                                               ; preds = %27
  %29 = load ptr, ptr %3, align 8, !tbaa !47
  %30 = getelementptr inbounds nuw %struct.AVFormatContext, ptr %29, i32 0, i32 7
  %31 = load ptr, ptr %30, align 8, !tbaa !57
  %32 = load ptr, ptr %3, align 8, !tbaa !47
  %33 = getelementptr inbounds nuw %struct.AVFormatContext, ptr %32, i32 0, i32 6
  %34 = load i32, ptr %33, align 4, !tbaa !48
  %35 = add i32 %34, -1
  store i32 %35, ptr %33, align 4, !tbaa !48
  %36 = zext i32 %35 to i64
  %37 = getelementptr inbounds nuw ptr, ptr %31, i64 %36
  call void @ff_free_stream(ptr noundef %37)
  ret void
}