; Function Attrs: nounwind uwtable
define void @ff_remove_stream(ptr noundef captures(none) %0, ptr noundef readnone captures(address) %1) local_unnamed_addr #0 {
  %3 = getelementptr inbounds nuw i8, ptr %0, i64 44
  %4 = load i32, ptr %3, align 4, !tbaa !42
  %.not = icmp eq i32 %4, 0
  br i1 %.not, label %5, label %6

5:                                                ; preds = %2
  tail call void (ptr, i32, ptr, ...) @av_log(ptr noundef null, i32 noundef 0, ptr noundef nonnull @.str, ptr noundef nonnull @.str.1, ptr noundef nonnull @.str.2, i32 noundef 115) #13
  tail call void @abort() #14
  unreachable

6:                                                ; preds = %2
  %7 = getelementptr inbounds nuw i8, ptr %0, i64 48
  %8 = load ptr, ptr %7, align 8, !tbaa !52
  %9 = add i32 %4, -1
  %10 = zext i32 %9 to i64
  %11 = getelementptr inbounds nuw ptr, ptr %8, i64 %10
  %12 = load ptr, ptr %11, align 8, !tbaa !4
  %13 = icmp eq ptr %12, %1
  br i1 %13, label %15, label %14

14:                                               ; preds = %6
  tail call void (ptr, i32, ptr, ...) @av_log(ptr noundef null, i32 noundef 0, ptr noundef nonnull @.str, ptr noundef nonnull @.str.3, ptr noundef nonnull @.str.2, i32 noundef 116) #13
  tail call void @abort() #14
  unreachable

15:                                               ; preds = %6
  store i32 %9, ptr %3, align 4, !tbaa !42
  tail call void @ff_free_stream(ptr noundef nonnull %11)
  ret void
}